target datalayout = "e-m:e-p270:32:32-p271:32:32-p272:64:64-i64:64-i128:128-f80:128-n8:16:32:64-S128"
target triple = "x86_64-pc-linux-gnu"

%struct._wmem_array_t = type { ptr, ptr, i64, i32, i32, i8 }

; Function Attrs: null_pointer_is_valid sspstrong uwtable
define noalias ptr @wmem_array_sized_new(ptr noundef %0, i64 noundef %1, i32 noundef %2) #0 {
  %4 = alloca ptr, align 8
  %5 = alloca i64, align 8
  %6 = alloca i32, align 4
  %7 = alloca ptr, align 8
  store ptr %0, ptr %4, align 8
  store i64 %1, ptr %5, align 8
  store i32 %2, ptr %6, align 4
  call void @llvm.lifetime.start.p0(i64 8, ptr %7) #11
  %8 = load ptr, ptr %4, align 8
  %9 = call noalias ptr @wmem_alloc(ptr noundef %8, i64 noundef 40) #12
  store ptr %9, ptr %7, align 8
  %10 = load ptr, ptr %4, align 8
  %11 = load ptr, ptr %7, align 8
  %12 = getelementptr inbounds nuw %struct._wmem_array_t, ptr %11, i32 0, i32 0
  store ptr %10, ptr %12, align 8
  %13 = load i64, ptr %5, align 8
  %14 = load ptr, ptr %7, align 8
  %15 = getelementptr inbounds nuw %struct._wmem_array_t, ptr %14, i32 0, i32 2
  store i64 %13, ptr %15, align 8
  %16 = load ptr, ptr %7, align 8
  %17 = getelementptr inbounds nuw %struct._wmem_array_t, ptr %16, i32 0, i32 3
  store i32 0, ptr %17, align 8
  %18 = load i32, ptr %6, align 4
  %19 = icmp ne i32 %18, 0
  br i1 %19, label %20, label %22

20:                                               ; preds = %3
  %21 = load i32, ptr %6, align 4
  br label %23

22:                                               ; preds = %3
  br label %23

23:                                               ; preds = %22, %20
  %24 = phi i32 [ %21, %20 ], [ 1, %22 ]
  %25 = load ptr, ptr %7, align 8
  %26 = getelementptr inbounds nuw %struct._wmem_array_t, ptr %25, i32 0, i32 4
  store i32 %24, ptr %26, align 4
  %27 = load ptr, ptr %7, align 8
  %28 = getelementptr inbounds nuw %struct._wmem_array_t, ptr %27, i32 0, i32 5
  store i8 0, ptr %28, align 8
  %29 = load ptr, ptr %7, align 8
  %30 = getelementptr inbounds nuw %struct._wmem_array_t, ptr %29, i32 0, i32 0
  %31 = load ptr, ptr %30, align 8
  %32 = load ptr, ptr %7, align 8
  %33 = getelementptr inbounds nuw %struct._wmem_array_t, ptr %32, i32 0, i32 2
  %34 = load i64, ptr %33, align 8
  %35 = load ptr, ptr %7, align 8
  %36 = getelementptr inbounds nuw %struct._wmem_array_t, ptr %35, i32 0, i32 4
  %37 = load i32, ptr %36, align 4
  %38 = zext i32 %37 to i64
  %39 = mul i64 %34, %38
  %40 = call noalias ptr @wmem_alloc(ptr noundef %31, i64 noundef %39) #12
  %41 = load ptr, ptr %7, align 8
  %42 = getelementptr inbounds nuw %struct._wmem_array_t, ptr %41, i32 0, i32 1
  store ptr %40, ptr %42, align 8
  %43 = load ptr, ptr %7, align 8
  call void @llvm.lifetime.end.p0(i64 8, ptr %7) #11
  ret ptr %43
}