; Function Attrs: null_pointer_is_valid sspstrong uwtable
define noalias noundef ptr @wmem_array_sized_new(ptr noundef %0, i64 noundef %1, i32 noundef %2) local_unnamed_addr #0 {
  %4 = tail call noalias dereferenceable_or_null(40) ptr @wmem_alloc(ptr noundef %0, i64 noundef 40) #12
  store ptr %0, ptr %4, align 8
  %5 = getelementptr inbounds nuw i8, ptr %4, i64 16
  store i64 %1, ptr %5, align 8
  %6 = getelementptr inbounds nuw i8, ptr %4, i64 24
  store i32 0, ptr %6, align 8
  %7 = tail call i32 @llvm.umax.i32(i32 %2, i32 1)
  %8 = getelementptr inbounds nuw i8, ptr %4, i64 28
  store i32 %7, ptr %8, align 4
  %9 = getelementptr inbounds nuw i8, ptr %4, i64 32
  store i8 0, ptr %9, align 8
  %10 = zext i32 %7 to i64
  %11 = mul i64 %1, %10
  %12 = tail call noalias ptr @wmem_alloc(ptr noundef %0, i64 noundef %11) #12
  %13 = getelementptr inbounds nuw i8, ptr %4, i64 8
  store ptr %12, ptr %13, align 8
  ret ptr %4
}